target datalayout = "e-m:e-p270:32:32-p271:32:32-p272:64:64-i64:64-i128:128-f80:128-n8:16:32:64-S128"
target triple = "x86_64-pc-linux-gnu"

%struct.HTable = type { i32, ptr }
%union.SourceSpan = type { i64 }
%struct.BuildTarget = type { i32, ptr, ptr, ptr, ptr, ptr, ptr, ptr, ptr, ptr, ptr, ptr, ptr, ptr, ptr, ptr, ptr, ptr, ptr, i8, i8, i8, i8, i8, i8, i8, i8, i8, i8, i8, i8, i8, i8, i8, i8, i8, i8, i8, i8, i32, i32, i32, i32, i32, i32, i32, i32, i32, i32, i32, i32, i32, i32, i32, i32, i32, i32, ptr, ptr, ptr, ptr, ptr, ptr, ptr, ptr, ptr, ptr, %struct.anon.86, %struct.anon.87, %struct.anon.88, %struct.anon.89 }
%struct.anon.86 = type { i16, i32, i32, i32 }
%struct.anon.87 = type { ptr, ptr, ptr, ptr }
%struct.anon.88 = type { ptr, ptr, i32, i8 }
%struct.anon.89 = type { ptr, ptr }
%struct.GenContext_ = type { i8, ptr, ptr, ptr, ptr, ptr, ptr, ptr, ptr, ptr, ptr, ptr, ptr, ptr, ptr, ptr, ptr, ptr, ptr, ptr, ptr, ptr, ptr, ptr, ptr, ptr, ptr, ptr, ptr, ptr, ptr, ptr, ptr, %struct.anon.85, i32, i32, %struct.DebugContext, ptr, ptr, ptr, %struct.BEValue, i8, %union.SourceSpan, ptr, ptr, ptr, ptr }
%struct.anon.85 = type { ptr, ptr, ptr }
%struct.DebugContext = type { i16, ptr, ptr, %struct.DebugFile_, ptr, ptr, ptr, ptr }
%struct.DebugFile_ = type { i16, ptr }
%struct.BEValue = type { i8, i32, ptr, ptr, ptr }
%struct.CompilationUnit_ = type { ptr, ptr, ptr, ptr, ptr, ptr, ptr, ptr, ptr, ptr, i32, ptr, i8, i8, i8, i8, ptr, ptr, ptr, ptr, ptr, ptr, ptr, ptr, ptr, ptr, ptr, ptr, %struct.HTable, i32, ptr, ptr, %struct.anon.104 }
%struct.anon.104 = type { ptr, ptr }
%struct.File = type { i16, ptr, i64, ptr, ptr, ptr }

@active_target = external global %struct.BuildTarget, align 8
@.str.7 = private unnamed_addr constant [1 x i8] zeroinitializer, align 1
@.str.8 = private unnamed_addr constant [4 x i8] c"c3c\00", align 1

; Function Attrs: nounwind uwtable
define dso_local void @gencontext_init_file_emit(ptr noundef %0, ptr noundef %1) #0 {
  %3 = alloca ptr, align 8
  %4 = alloca ptr, align 8
  %5 = alloca i8, align 1
  %6 = alloca ptr, align 8
  %7 = alloca i32, align 4
  %8 = alloca i32, align 4
  %9 = alloca ptr, align 8
  %10 = alloca i8, align 1
  %11 = alloca i8, align 1
  %12 = alloca ptr, align 8
  %13 = alloca ptr, align 8
  %14 = alloca i32, align 4
  store ptr %0, ptr %3, align 8
  store ptr %1, ptr %4, align 8
  %15 = load i32, ptr getelementptr inbounds (%struct.BuildTarget, ptr @active_target, i32 0, i32 50), align 8
  %16 = icmp ne i32 %15, 0
  br i1 %16, label %17, label %84

17:                                               ; preds = %2
  %18 = load ptr, ptr %3, align 8
  %19 = load ptr, ptr %4, align 8
  %20 = getelementptr inbounds %struct.CompilationUnit_, ptr %19, i32 0, i32 1
  %21 = load ptr, ptr %20, align 8
  %22 = getelementptr inbounds %struct.File, ptr %21, i32 0, i32 0
  %23 = load i16, ptr %22, align 8
  %24 = call ptr @llvm_get_debug_file(ptr noundef %18, i16 noundef zeroext %23)
  %25 = load ptr, ptr %4, align 8
  %26 = getelementptr inbounds %struct.CompilationUnit_, ptr %25, i32 0, i32 32
  %27 = getelementptr inbounds %struct.anon.104, ptr %26, i32 0, i32 0
  store ptr %24, ptr %27, align 8
  %28 = load i32, ptr getelementptr inbounds (%struct.BuildTarget, ptr @active_target, i32 0, i32 42), align 8
  %29 = icmp ne i32 %28, 0
  %30 = zext i1 %29 to i8
  store i8 %30, ptr %5, align 1
  store ptr @.str.7, ptr %6, align 8
  store i32 0, ptr %7, align 4
  %31 = load i32, ptr getelementptr inbounds (%struct.BuildTarget, ptr @active_target, i32 0, i32 50), align 8
  %32 = icmp eq i32 %31, 2
  %33 = select i1 %32, i32 1, i32 2
  store i32 %33, ptr %8, align 4
  store ptr @.str.7, ptr %9, align 8
  store i8 0, ptr %10, align 1
  store i8 0, ptr %11, align 1
  store ptr @.str.7, ptr %12, align 8
  store ptr @.str.7, ptr %13, align 8
  store i32 0, ptr %14, align 4
  %34 = load ptr, ptr %3, align 8
  %35 = getelementptr inbounds %struct.GenContext_, ptr %34, i32 0, i32 36
  %36 = getelementptr inbounds %struct.DebugContext, ptr %35, i32 0, i32 4
  %37 = load ptr, ptr %36, align 8
  %38 = icmp ne ptr %37, null
  br i1 %38, label %39, label %47

39:                                               ; preds = %17
  %40 = load ptr, ptr %3, align 8
  %41 = getelementptr inbounds %struct.GenContext_, ptr %40, i32 0, i32 36
  %42 = getelementptr inbounds %struct.DebugContext, ptr %41, i32 0, i32 4
  %43 = load ptr, ptr %42, align 8
  %44 = load ptr, ptr %4, align 8
  %45 = getelementptr inbounds %struct.CompilationUnit_, ptr %44, i32 0, i32 32
  %46 = getelementptr inbounds %struct.anon.104, ptr %45, i32 0, i32 1
  store ptr %43, ptr %46, align 8
  br label %84

47:                                               ; preds = %17
  %48 = load ptr, ptr %3, align 8
  %49 = getelementptr inbounds %struct.GenContext_, ptr %48, i32 0, i32 36
  %50 = getelementptr inbounds %struct.DebugContext, ptr %49, i32 0, i32 1
  %51 = load ptr, ptr %50, align 8
  %52 = load ptr, ptr %4, align 8
  %53 = getelementptr inbounds %struct.CompilationUnit_, ptr %52, i32 0, i32 32
  %54 = getelementptr inbounds %struct.anon.104, ptr %53, i32 0, i32 0
  %55 = load ptr, ptr %54, align 8
  %56 = load i8, ptr %5, align 1
  %57 = trunc i8 %56 to i1
  %58 = zext i1 %57 to i32
  %59 = load ptr, ptr %6, align 8
  %60 = load ptr, ptr %6, align 8
  %61 = call i64 @strlen(ptr noundef %60) #3
  %62 = load i32, ptr %7, align 4
  %63 = load ptr, ptr %9, align 8
  %64 = load ptr, ptr %9, align 8
  %65 = call i64 @strlen(ptr noundef %64) #3
  %66 = load i32, ptr %8, align 4
  %67 = load i32, ptr %14, align 4
  %68 = load i8, ptr %11, align 1
  %69 = trunc i8 %68 to i1
  %70 = zext i1 %69 to i32
  %71 = load i8, ptr %10, align 1
  %72 = trunc i8 %71 to i1
  %73 = zext i1 %72 to i32
  %74 = load ptr, ptr %12, align 8
  %75 = load ptr, ptr %12, align 8
  %76 = call i64 @strlen(ptr noundef %75) #3
  %77 = load ptr, ptr %13, align 8
  %78 = load ptr, ptr %13, align 8
  %79 = call i64 @strlen(ptr noundef %78) #3
  %80 = call ptr @LLVMDIBuilderCreateCompileUnit(ptr noundef %51, i32 noundef 28, ptr noundef %55, ptr noundef @.str.8, i64 noundef 3, i32 noundef %58, ptr noundef %59, i64 noundef %61, i32 noundef %62, ptr noundef %63, i64 noundef %65, i32 noundef %66, i32 noundef %67, i32 noundef %70, i32 noundef %73, ptr noundef %74, i64 noundef %76, ptr noundef %77, i64 noundef %79)
  %81 = load ptr, ptr %4, align 8
  %82 = getelementptr inbounds %struct.CompilationUnit_, ptr %81, i32 0, i32 32
  %83 = getelementptr inbounds %struct.anon.104, ptr %82, i32 0, i32 1
  store ptr %80, ptr %83, align 8
  br label %84

84:                                               ; preds = %47, %39, %2
  ret void
}