; Function Attrs: nounwind uwtable
define dso_local void @gencontext_init_file_emit(ptr noundef %0, ptr nocapture noundef %1) local_unnamed_addr #0 {
  %3 = load i32, ptr getelementptr inbounds (%struct.BuildTarget, ptr @active_target, i64 0, i32 50), align 8
  %.not = icmp eq i32 %3, 0
  br i1 %.not, label %23, label %4

4:                                                ; preds = %2
  %5 = getelementptr inbounds i8, ptr %1, i64 8
  %6 = load ptr, ptr %5, align 8
  %7 = load i16, ptr %6, align 8
  %8 = tail call ptr @llvm_get_debug_file(ptr noundef %0, i16 noundef zeroext %7) #6
  %9 = getelementptr inbounds i8, ptr %1, i64 240
  store ptr %8, ptr %9, align 8
  %10 = getelementptr inbounds i8, ptr %0, i64 336
  %11 = load ptr, ptr %10, align 8
  %.not22 = icmp eq ptr %11, null
  br i1 %.not22, label %12, label %.sink.split

12:                                               ; preds = %4
  %13 = load i32, ptr getelementptr inbounds (%struct.BuildTarget, ptr @active_target, i64 0, i32 50), align 8
  %14 = icmp eq i32 %13, 2
  %15 = select i1 %14, i32 1, i32 2
  %16 = load i32, ptr getelementptr inbounds (%struct.BuildTarget, ptr @active_target, i64 0, i32 42), align 8
  %17 = icmp ne i32 %16, 0
  %18 = getelementptr inbounds i8, ptr %0, i64 304
  %19 = load ptr, ptr %18, align 8
  %20 = zext i1 %17 to i32
  %21 = tail call ptr @LLVMDIBuilderCreateCompileUnit(ptr noundef %19, i32 noundef 28, ptr noundef %8, ptr noundef nonnull @.str.8, i64 noundef 3, i32 noundef %20, ptr noundef nonnull @.str.7, i64 noundef 0, i32 noundef 0, ptr noundef nonnull @.str.7, i64 noundef 0, i32 noundef %15, i32 noundef 0, i32 noundef 0, i32 noundef 0, ptr noundef nonnull @.str.7, i64 noundef 0, ptr noundef nonnull @.str.7, i64 noundef 0) #6
  br label %.sink.split

.sink.split:                                      ; preds = %4, %12
  %.sink = phi ptr [ %21, %12 ], [ %11, %4 ]
  %22 = getelementptr inbounds i8, ptr %1, i64 248
  store ptr %.sink, ptr %22, align 8
  br label %23

23:                                               ; preds = %.sink.split, %2
  ret void
}